target datalayout = "e-m:e-p270:32:32-p271:32:32-p272:64:64-i64:64-i128:128-f80:128-n8:16:32:64-S128"
target triple = "x86_64-pc-linux-gnu"

%struct.ossl_algorithm_st = type { ptr, ptr, ptr, ptr }

@tls_prov_keyexch = internal constant [2 x %struct.ossl_algorithm_st] [%struct.ossl_algorithm_st { ptr @.str.8, ptr @.str.9, ptr @xor_keyexch_functions, ptr null }, %struct.ossl_algorithm_st zeroinitializer], align 16
@tls_prov_kem = internal constant [2 x %struct.ossl_algorithm_st] [%struct.ossl_algorithm_st { ptr @.str.8, ptr @.str.9, ptr @xor_kem_functions, ptr null }, %struct.ossl_algorithm_st zeroinitializer], align 16

; Function Attrs: nounwind uwtable
define internal ptr @tls_prov_query(ptr noundef %0, i32 noundef %1, ptr noundef %2) #0 {
  %4 = alloca ptr, align 8
  %5 = alloca ptr, align 8
  %6 = alloca i32, align 4
  %7 = alloca ptr, align 8
  store ptr %0, ptr %5, align 8, !tbaa !13
  store i32 %1, ptr %6, align 4, !tbaa !27
  store ptr %2, ptr %7, align 8, !tbaa !33
  %8 = load ptr, ptr %7, align 8, !tbaa !33
  store i32 0, ptr %8, align 4, !tbaa !27
  %9 = load i32, ptr %6, align 4, !tbaa !27
  switch i32 %9, label %16 [
    i32 10, label %10
    i32 11, label %11
    i32 14, label %12
    i32 20, label %13
    i32 21, label %14
    i32 12, label %15
  ]

10:                                               ; preds = %3
  store ptr @tls_prov_keymgmt, ptr %4, align 8
  br label %17

11:                                               ; preds = %3
  store ptr @tls_prov_keyexch, ptr %4, align 8
  br label %17

12:                                               ; preds = %3
  store ptr @tls_prov_kem, ptr %4, align 8
  br label %17

13:                                               ; preds = %3
  store ptr @tls_prov_encoder, ptr %4, align 8
  br label %17

14:                                               ; preds = %3
  store ptr @tls_prov_decoder, ptr %4, align 8
  br label %17

15:                                               ; preds = %3
  store ptr @tls_prov_signature, ptr %4, align 8
  br label %17

16:                                               ; preds = %3
  store ptr null, ptr %4, align 8
  br label %17

17:                                               ; preds = %16, %15, %14, %13, %12, %11, %10
  %18 = load ptr, ptr %4, align 8
  ret ptr %18
}