; Function Attrs: mustprogress nofree norecurse nosync nounwind willreturn memory(argmem: write) uwtable
define internal noundef ptr @tls_prov_query(ptr readnone captures(none) %0, i32 noundef %1, ptr noundef writeonly captures(none) initializes((0, 4)) %2) #3 {
  store i32 0, ptr %2, align 4, !tbaa !11
  %switch.tableidx = add i32 %1, -10
  %4 = icmp ult i32 %switch.tableidx, 12
  br i1 %4, label %switch.lookup, label %6

switch.lookup:                                    ; preds = %3
  %5 = zext nneg i32 %switch.tableidx to i64
  %switch.gep = getelementptr inbounds nuw [12 x ptr], ptr @switch.table.tls_prov_query, i64 0, i64 %5
  %switch.load = load ptr, ptr %switch.gep, align 8
  br label %6

6:                                                ; preds = %3, %switch.lookup
  %.0 = phi ptr [ %switch.load, %switch.lookup ], [ null, %3 ]
  ret ptr %.0
}